target datalayout = "e-m:e-p270:32:32-p271:32:32-p272:64:64-i64:64-i128:128-f80:128-n8:16:32:64-S128"
target triple = "x86_64-pc-linux-gnu"

%"struct.PXR_INTERNAL_NS_pegtl::internal::unwind_guard.1157" = type { %"class.std::optional.1158" }
%"class.std::optional.1158" = type { %"struct.std::_Optional_base.1159" }
%"struct.std::_Optional_base.1159" = type { %"struct.std::_Optional_payload.1161" }
%"struct.std::_Optional_payload.1161" = type { %"struct.std::_Optional_payload_base.base.1166", [7 x i8] }
%"struct.std::_Optional_payload_base.base.1166" = type <{ %"union.std::_Optional_payload_base<(lambda at /home/dtcxzyw/WorkSpace/Projects/compilers/llvm-opt-benchmark/bench/openusd/OpenUSD/pxr/base/pegtl/pegtl/match.hpp:76:30)>::_Storage.1163", i8 }>
%"union.std::_Optional_payload_base<(lambda at /home/dtcxzyw/WorkSpace/Projects/compilers/llvm-opt-benchmark/bench/openusd/OpenUSD/pxr/base/pegtl/pegtl/match.hpp:76:30)>::_Storage.1163" = type { %class.anon.1165 }
%class.anon.1165 = type { ptr, ptr, ptr }
%"struct.std::_Optional_payload_base.1162" = type <{ %"union.std::_Optional_payload_base<(lambda at /home/dtcxzyw/WorkSpace/Projects/compilers/llvm-opt-benchmark/bench/openusd/OpenUSD/pxr/base/pegtl/pegtl/match.hpp:76:30)>::_Storage.1163", i8, [7 x i8] }>

; Function Attrs: mustprogress nounwind uwtable
define internal noundef nonnull align 8 dereferenceable(24) ptr @_ZNSt22_Optional_payload_baseIZN21PXR_INTERNAL_NS_pegtl8internal20match_control_unwindIN32pxrInternal_v0_24__pxrReserved__12_GLOBAL__N_114ListExpressionELNS0_10apply_modeE1ELNS0_11rewind_modeE0ETtTpTyENS4_6ActionETtTpTyENS0_13state_controlINS4_6ErrorsEE4typeENS0_12memory_inputILNS0_13tracking_modeE0ENS0_5ascii3eol7lf_crlfENSt7__cxx1112basic_stringIcSt11char_traitsIcESaIcEEEEEJRNS4_13ParserContextERNS0_6tracerINS0_13tracer_traitsILb1ELb1ELm2ELm8EEEEEEEEDaRT4_DpOT5_EUlvE_E6_M_getEv(ptr noundef nonnull align 8 dereferenceable(25) %0) #5 align 2 {
  %2 = alloca ptr, align 8
  store ptr %0, ptr %2, align 8
  %3 = load ptr, ptr %2, align 8
  %4 = getelementptr inbounds nuw %"struct.std::_Optional_payload_base.1162", ptr %3, i32 0, i32 0
  ret ptr %4
}

; Function Attrs: mustprogress nounwind uwtable
define internal noundef nonnull align 8 dereferenceable(24) ptr @_ZNSt19_Optional_base_implIZN21PXR_INTERNAL_NS_pegtl8internal20match_control_unwindIN32pxrInternal_v0_24__pxrReserved__12_GLOBAL__N_114ListExpressionELNS0_10apply_modeE1ELNS0_11rewind_modeE0ETtTpTyENS4_6ActionETtTpTyENS0_13state_controlINS4_6ErrorsEE4typeENS0_12memory_inputILNS0_13tracking_modeE0ENS0_5ascii3eol7lf_crlfENSt7__cxx1112basic_stringIcSt11char_traitsIcESaIcEEEEEJRNS4_13ParserContextERNS0_6tracerINS0_13tracer_traitsILb1ELb1ELm2ELm8EEEEEEEEDaRT4_DpOT5_EUlvE_St14_Optional_baseIS11_Lb1ELb1EEE6_M_getEv(ptr noundef nonnull align 1 dereferenceable(1) %0) #5 align 2 {
  %2 = alloca ptr, align 8
  store ptr %0, ptr %2, align 8
  %3 = load ptr, ptr %2, align 8
  br label %4

4:                                                ; preds = %1
  br label %5

5:                                                ; preds = %4
  br label %6

6:                                                ; preds = %5
  %7 = getelementptr inbounds nuw %"struct.std::_Optional_base.1159", ptr %3, i32 0, i32 0
  %8 = call noundef nonnull align 8 dereferenceable(24) ptr @_ZNSt22_Optional_payload_baseIZN21PXR_INTERNAL_NS_pegtl8internal20match_control_unwindIN32pxrInternal_v0_24__pxrReserved__12_GLOBAL__N_114ListExpressionELNS0_10apply_modeE1ELNS0_11rewind_modeE0ETtTpTyENS4_6ActionETtTpTyENS0_13state_controlINS4_6ErrorsEE4typeENS0_12memory_inputILNS0_13tracking_modeE0ENS0_5ascii3eol7lf_crlfENSt7__cxx1112basic_stringIcSt11char_traitsIcESaIcEEEEEJRNS4_13ParserContextERNS0_6tracerINS0_13tracer_traitsILb1ELb1ELm2ELm8EEEEEEEEDaRT4_DpOT5_EUlvE_E6_M_getEv(ptr noundef nonnull align 8 dereferenceable(25) %7) #3
  ret ptr %8
}

; Function Attrs: mustprogress nounwind uwtable
define internal noundef zeroext i1 @_ZNKSt19_Optional_base_implIZN21PXR_INTERNAL_NS_pegtl8internal20match_control_unwindIN32pxrInternal_v0_24__pxrReserved__12_GLOBAL__N_114ListExpressionELNS0_10apply_modeE1ELNS0_11rewind_modeE0ETtTpTyENS4_6ActionETtTpTyENS0_13state_controlINS4_6ErrorsEE4typeENS0_12memory_inputILNS0_13tracking_modeE0ENS0_5ascii3eol7lf_crlfENSt7__cxx1112basic_stringIcSt11char_traitsIcESaIcEEEEEJRNS4_13ParserContextERNS0_6tracerINS0_13tracer_traitsILb1ELb1ELm2ELm8EEEEEEEEDaRT4_DpOT5_EUlvE_St14_Optional_baseIS11_Lb1ELb1EEE13_M_is_engagedEv(ptr noundef nonnull align 1 dereferenceable(1) %0) #5 align 2 {
  %2 = alloca ptr, align 8
  store ptr %0, ptr %2, align 8
  %3 = load ptr, ptr %2, align 8
  %4 = getelementptr inbounds nuw %"struct.std::_Optional_base.1159", ptr %3, i32 0, i32 0
  %5 = getelementptr inbounds nuw %"struct.std::_Optional_payload_base.1162", ptr %4, i32 0, i32 1
  %6 = load i8, ptr %5, align 8
  %7 = trunc i8 %6 to i1
  ret i1 %7
}

; Function Attrs: mustprogress uwtable
define internal void @_ZZN21PXR_INTERNAL_NS_pegtl8internal20match_control_unwindIN32pxrInternal_v0_24__pxrReserved__12_GLOBAL__N_114ListExpressionELNS_10apply_modeE1ELNS_11rewind_modeE0ETtTpTyENS3_6ActionETtTpTyENS_13state_controlINS3_6ErrorsEE4typeENS_12memory_inputILNS_13tracking_modeE0ENS_5ascii3eol7lf_crlfENSt7__cxx1112basic_stringIcSt11char_traitsIcESaIcEEEEEJRNS3_13ParserContextERNS_6tracerINS_13tracer_traitsILb1ELb1ELm2ELm8EEEEEEEEDaRT4_DpOT5_ENKUlvE_clEv(ptr noundef nonnull align 8 dereferenceable(24) %0) #4 align 2 {
  %2 = alloca ptr, align 8
  store ptr %0, ptr %2, align 8
  %3 = load ptr, ptr %2, align 8
  %4 = getelementptr inbounds nuw %class.anon.1165, ptr %3, i32 0, i32 0
  %5 = load ptr, ptr %4, align 8
  %6 = getelementptr inbounds nuw %class.anon.1165, ptr %3, i32 0, i32 1
  %7 = load ptr, ptr %6, align 8
  %8 = getelementptr inbounds nuw %class.anon.1165, ptr %3, i32 0, i32 2
  %9 = load ptr, ptr %8, align 8
  call void @_ZN21PXR_INTERNAL_NS_pegtl14shuffle_statesINS_13state_controlIN32pxrInternal_v0_24__pxrReserved__12_GLOBAL__N_16ErrorsEE7controlINS3_14ListExpressionEEENS_8internal12rotate_rightILm1EEEE6unwindINS_12memory_inputILNS_13tracking_modeE0ENS_5ascii3eol7lf_crlfENSt7__cxx1112basic_stringIcSt11char_traitsIcESaIcEEEEEJRNS3_13ParserContextERNS_6tracerINS_13tracer_traitsILb1ELb1ELm2ELm8EEEEEEEEDTcl11unwind_implfp_clsr3stdE3tiespfp0_Ecv18__make_integer_seqISt16integer_sequencemXsZfp0_EE_EEERKT_DpOT0_(ptr noundef nonnull align 8 dereferenceable(88) %5, ptr noundef nonnull align 8 dereferenceable(24) %7, ptr noundef nonnull align 8 dereferenceable(96) %9)
  ret void
}

; Function Attrs: mustprogress nounwind uwtable
define internal noundef nonnull align 8 dereferenceable(24) ptr @_ZNRSt8optionalIZN21PXR_INTERNAL_NS_pegtl8internal20match_control_unwindIN32pxrInternal_v0_24__pxrReserved__12_GLOBAL__N_114ListExpressionELNS0_10apply_modeE1ELNS0_11rewind_modeE0ETtTpTyENS4_6ActionETtTpTyENS0_13state_controlINS4_6ErrorsEE4typeENS0_12memory_inputILNS0_13tracking_modeE0ENS0_5ascii3eol7lf_crlfENSt7__cxx1112basic_stringIcSt11char_traitsIcESaIcEEEEEJRNS4_13ParserContextERNS0_6tracerINS0_13tracer_traitsILb1ELb1ELm2ELm8EEEEEEEEDaRT4_DpOT5_EUlvE_EdeEv(ptr noundef nonnull align 8 dereferenceable(32) %0) #5 align 2 {
  %2 = alloca ptr, align 8
  store ptr %0, ptr %2, align 8
  %3 = load ptr, ptr %2, align 8
  %4 = call noundef nonnull align 8 dereferenceable(24) ptr @_ZNSt19_Optional_base_implIZN21PXR_INTERNAL_NS_pegtl8internal20match_control_unwindIN32pxrInternal_v0_24__pxrReserved__12_GLOBAL__N_114ListExpressionELNS0_10apply_modeE1ELNS0_11rewind_modeE0ETtTpTyENS4_6ActionETtTpTyENS0_13state_controlINS4_6ErrorsEE4typeENS0_12memory_inputILNS0_13tracking_modeE0ENS0_5ascii3eol7lf_crlfENSt7__cxx1112basic_stringIcSt11char_traitsIcESaIcEEEEEJRNS4_13ParserContextERNS0_6tracerINS0_13tracer_traitsILb1ELb1ELm2ELm8EEEEEEEEDaRT4_DpOT5_EUlvE_St14_Optional_baseIS11_Lb1ELb1EEE6_M_getEv(ptr noundef nonnull align 1 dereferenceable(1) %3) #3
  ret ptr %4
}

; Function Attrs: mustprogress nounwind uwtable
define internal noundef zeroext i1 @_ZNKSt8optionalIZN21PXR_INTERNAL_NS_pegtl8internal20match_control_unwindIN32pxrInternal_v0_24__pxrReserved__12_GLOBAL__N_114ListExpressionELNS0_10apply_modeE1ELNS0_11rewind_modeE0ETtTpTyENS4_6ActionETtTpTyENS0_13state_controlINS4_6ErrorsEE4typeENS0_12memory_inputILNS0_13tracking_modeE0ENS0_5ascii3eol7lf_crlfENSt7__cxx1112basic_stringIcSt11char_traitsIcESaIcEEEEEJRNS4_13ParserContextERNS0_6tracerINS0_13tracer_traitsILb1ELb1ELm2ELm8EEEEEEEEDaRT4_DpOT5_EUlvE_EcvbEv(ptr noundef nonnull align 8 dereferenceable(32) %0) #5 align 2 {
  %2 = alloca ptr, align 8
  store ptr %0, ptr %2, align 8
  %3 = load ptr, ptr %2, align 8
  %4 = call noundef zeroext i1 @_ZNKSt19_Optional_base_implIZN21PXR_INTERNAL_NS_pegtl8internal20match_control_unwindIN32pxrInternal_v0_24__pxrReserved__12_GLOBAL__N_114ListExpressionELNS0_10apply_modeE1ELNS0_11rewind_modeE0ETtTpTyENS4_6ActionETtTpTyENS0_13state_controlINS4_6ErrorsEE4typeENS0_12memory_inputILNS0_13tracking_modeE0ENS0_5ascii3eol7lf_crlfENSt7__cxx1112basic_stringIcSt11char_traitsIcESaIcEEEEEJRNS4_13ParserContextERNS0_6tracerINS0_13tracer_traitsILb1ELb1ELm2ELm8EEEEEEEEDaRT4_DpOT5_EUlvE_St14_Optional_baseIS11_Lb1ELb1EEE13_M_is_engagedEv(ptr noundef nonnull align 1 dereferenceable(1) %3) #3
  ret i1 %4
}

; Function Attrs: mustprogress nounwind uwtable
define internal void @_ZN21PXR_INTERNAL_NS_pegtl8internal12unwind_guardIZNS0_20match_control_unwindIN32pxrInternal_v0_24__pxrReserved__12_GLOBAL__N_114ListExpressionELNS_10apply_modeE1ELNS_11rewind_modeE0ETtTpTyENS4_6ActionETtTpTyENS_13state_controlINS4_6ErrorsEE4typeENS_12memory_inputILNS_13tracking_modeE0ENS_5ascii3eol7lf_crlfENSt7__cxx1112basic_stringIcSt11char_traitsIcESaIcEEEEEJRNS4_13ParserContextERNS_6tracerINS_13tracer_traitsILb1ELb1ELm2ELm8EEEEEEEEDaRT4_DpOT5_EUlvE_ED2Ev(ptr noundef nonnull align 8 dereferenceable(32) %0) unnamed_addr #5 align 2 personality ptr @__gxx_personality_v0 {
  %2 = alloca ptr, align 8
  store ptr %0, ptr %2, align 8
  %3 = load ptr, ptr %2, align 8
  %4 = getelementptr inbounds nuw %"struct.PXR_INTERNAL_NS_pegtl::internal::unwind_guard.1157", ptr %3, i32 0, i32 0
  %5 = call noundef zeroext i1 @_ZNKSt8optionalIZN21PXR_INTERNAL_NS_pegtl8internal20match_control_unwindIN32pxrInternal_v0_24__pxrReserved__12_GLOBAL__N_114ListExpressionELNS0_10apply_modeE1ELNS0_11rewind_modeE0ETtTpTyENS4_6ActionETtTpTyENS0_13state_controlINS4_6ErrorsEE4typeENS0_12memory_inputILNS0_13tracking_modeE0ENS0_5ascii3eol7lf_crlfENSt7__cxx1112basic_stringIcSt11char_traitsIcESaIcEEEEEJRNS4_13ParserContextERNS0_6tracerINS0_13tracer_traitsILb1ELb1ELm2ELm8EEEEEEEEDaRT4_DpOT5_EUlvE_EcvbEv(ptr noundef nonnull align 8 dereferenceable(32) %4) #3
  br i1 %5, label %6, label %10

6:                                                ; preds = %1
  %7 = getelementptr inbounds nuw %"struct.PXR_INTERNAL_NS_pegtl::internal::unwind_guard.1157", ptr %3, i32 0, i32 0
  %8 = call noundef nonnull align 8 dereferenceable(24) ptr @_ZNRSt8optionalIZN21PXR_INTERNAL_NS_pegtl8internal20match_control_unwindIN32pxrInternal_v0_24__pxrReserved__12_GLOBAL__N_114ListExpressionELNS0_10apply_modeE1ELNS0_11rewind_modeE0ETtTpTyENS4_6ActionETtTpTyENS0_13state_controlINS4_6ErrorsEE4typeENS0_12memory_inputILNS0_13tracking_modeE0ENS0_5ascii3eol7lf_crlfENSt7__cxx1112basic_stringIcSt11char_traitsIcESaIcEEEEEJRNS4_13ParserContextERNS0_6tracerINS0_13tracer_traitsILb1ELb1ELm2ELm8EEEEEEEEDaRT4_DpOT5_EUlvE_EdeEv(ptr noundef nonnull align 8 dereferenceable(32) %7) #3
  invoke void @_ZZN21PXR_INTERNAL_NS_pegtl8internal20match_control_unwindIN32pxrInternal_v0_24__pxrReserved__12_GLOBAL__N_114ListExpressionELNS_10apply_modeE1ELNS_11rewind_modeE0ETtTpTyENS3_6ActionETtTpTyENS_13state_controlINS3_6ErrorsEE4typeENS_12memory_inputILNS_13tracking_modeE0ENS_5ascii3eol7lf_crlfENSt7__cxx1112basic_stringIcSt11char_traitsIcESaIcEEEEEJRNS3_13ParserContextERNS_6tracerINS_13tracer_traitsILb1ELb1ELm2ELm8EEEEEEEEDaRT4_DpOT5_ENKUlvE_clEv(ptr noundef nonnull align 8 dereferenceable(24) %8)
          to label %9 unwind label %11

9:                                                ; preds = %6
  br label %10

10:                                               ; preds = %9, %1
  ret void

11:                                               ; preds = %6
  %12 = landingpad { ptr, i32 }
          catch ptr null
  %13 = extractvalue { ptr, i32 } %12, 0
  call void @__clang_call_terminate(ptr %13) #18
  unreachable
}